target datalayout = "e-m:e-p270:32:32-p271:32:32-p272:64:64-i64:64-i128:128-f80:128-n8:16:32:64-S128"
target triple = "x86_64-pc-linux-gnu"

%class.substitution_tree = type { ptr, %class.ptr_vector, i32, %class.ptr_vector.0, i32, %class.ptr_vector.2, i32, %class.bit_vector, %class.svector, %class.svector.5, %class.svector.5, ptr, %class.ptr_vector, i32, i32, i32, %class.svector.7 }
%class.ptr_vector.0 = type { %class.vector.1 }
%class.vector.1 = type { ptr }
%class.ptr_vector.2 = type { %class.vector.3 }
%class.vector.3 = type { ptr }
%class.bit_vector = type { i32, i32, ptr }
%class.svector = type { %class.vector.4 }
%class.vector.4 = type { ptr }
%class.svector.5 = type { %class.vector.6 }
%class.vector.6 = type { ptr }
%class.ptr_vector = type { %class.vector }
%class.vector = type { ptr }
%class.svector.7 = type { %class.vector.8 }
%class.vector.8 = type { ptr }

; Function Attrs: mustprogress nounwind uwtable
define linkonce_odr hidden noundef i32 @_ZN10bit_vector12get_pos_maskEj(i32 noundef %0) #6 comdat align 2 {
  %2 = alloca i32, align 4
  store i32 %0, ptr %2, align 4, !tbaa !33
  %3 = load i32, ptr %2, align 4, !tbaa !33
  %4 = urem i32 %3, 32
  %5 = shl i32 1, %4
  ret i32 %5
}

; Function Attrs: mustprogress nounwind uwtable
define linkonce_odr hidden noundef i32 @_ZNK10bit_vector12get_bit_wordEj(ptr noundef nonnull align 8 dereferenceable(16) %0, i32 noundef %1) #6 comdat align 2 {
  %3 = alloca ptr, align 8
  %4 = alloca i32, align 4
  store ptr %0, ptr %3, align 8, !tbaa !37
  store i32 %1, ptr %4, align 4, !tbaa !33
  %5 = load ptr, ptr %3, align 8
  %6 = getelementptr inbounds nuw %class.bit_vector, ptr %5, i32 0, i32 2
  %7 = load ptr, ptr %6, align 8, !tbaa !103
  %8 = load i32, ptr %4, align 4, !tbaa !33
  %9 = udiv i32 %8, 32
  %10 = zext i32 %9 to i64
  %11 = getelementptr inbounds nuw i32, ptr %7, i64 %10
  %12 = load i32, ptr %11, align 4, !tbaa !33
  ret i32 %12
}

; Function Attrs: mustprogress uwtable
define linkonce_odr hidden noundef zeroext i1 @_ZNK10bit_vector3getEj(ptr noundef nonnull align 8 dereferenceable(16) %0, i32 noundef %1) #4 comdat align 2 {
  %3 = alloca ptr, align 8
  %4 = alloca i32, align 4
  %5 = alloca i8, align 1
  store ptr %0, ptr %3, align 8, !tbaa !37
  store i32 %1, ptr %4, align 4, !tbaa !33
  %6 = load ptr, ptr %3, align 8
  call void @llvm.lifetime.start.p0(i64 1, ptr %5) #3
  %7 = load i32, ptr %4, align 4, !tbaa !33
  %8 = call noundef i32 @_ZNK10bit_vector12get_bit_wordEj(ptr noundef nonnull align 8 dereferenceable(16) %6, i32 noundef %7)
  %9 = load i32, ptr %4, align 4, !tbaa !33
  %10 = call noundef i32 @_ZN10bit_vector12get_pos_maskEj(i32 noundef %9)
  %11 = and i32 %8, %10
  %12 = icmp ne i32 %11, 0
  %13 = zext i1 %12 to i8
  store i8 %13, ptr %5, align 1, !tbaa !40
  %14 = load i8, ptr %5, align 1, !tbaa !40, !range !42, !noundef !43
  %15 = trunc i8 %14 to i1
  call void @llvm.lifetime.end.p0(i64 1, ptr %5) #3
  ret i1 %15
}

; Function Attrs: mustprogress nounwind uwtable
define linkonce_odr hidden noundef i32 @_ZNK10bit_vector4sizeEv(ptr noundef nonnull align 8 dereferenceable(16) %0) #6 comdat align 2 {
  %2 = alloca ptr, align 8
  store ptr %0, ptr %2, align 8, !tbaa !37
  %3 = load ptr, ptr %2, align 8
  %4 = getelementptr inbounds nuw %class.bit_vector, ptr %3, i32 0, i32 0
  %5 = load i32, ptr %4, align 8, !tbaa !39
  ret i32 %5
}

; Function Attrs: mustprogress uwtable
define hidden noundef i32 @_ZN17substitution_tree8next_regEv(ptr noundef nonnull align 8 dereferenceable(136) %0) #4 align 2 {
  %2 = alloca i32, align 4
  %3 = alloca ptr, align 8
  %4 = alloca i32, align 4
  %5 = alloca i32, align 4
  store ptr %0, ptr %3, align 8, !tbaa !3
  %6 = load ptr, ptr %3, align 8
  br label %7

7:                                                ; preds = %1, %34
  call void @llvm.lifetime.start.p0(i64 4, ptr %4) #3
  %8 = getelementptr inbounds nuw %class.substitution_tree, ptr %6, i32 0, i32 6
  %9 = load i32, ptr %8, align 8, !tbaa !8
  store i32 %9, ptr %4, align 4, !tbaa !33
  %10 = load i32, ptr %4, align 4, !tbaa !33
  %11 = getelementptr inbounds nuw %class.substitution_tree, ptr %6, i32 0, i32 2
  %12 = load i32, ptr %11, align 8, !tbaa !34
  %13 = icmp ugt i32 %10, %12
  br i1 %13, label %14, label %17

14:                                               ; preds = %7
  %15 = load i32, ptr %4, align 4, !tbaa !33
  %16 = getelementptr inbounds nuw %class.substitution_tree, ptr %6, i32 0, i32 2
  store i32 %15, ptr %16, align 8, !tbaa !34
  br label %17

17:                                               ; preds = %14, %7
  %18 = getelementptr inbounds nuw %class.substitution_tree, ptr %6, i32 0, i32 6
  %19 = load i32, ptr %18, align 8, !tbaa !8
  %20 = add i32 %19, 1
  store i32 %20, ptr %18, align 8, !tbaa !8
  %21 = load i32, ptr %4, align 4, !tbaa !33
  %22 = getelementptr inbounds nuw %class.substitution_tree, ptr %6, i32 0, i32 7
  %23 = call noundef i32 @_ZNK10bit_vector4sizeEv(ptr noundef nonnull align 8 dereferenceable(16) %22)
  %24 = icmp uge i32 %21, %23
  br i1 %24, label %29, label %25

25:                                               ; preds = %17
  %26 = getelementptr inbounds nuw %class.substitution_tree, ptr %6, i32 0, i32 7
  %27 = load i32, ptr %4, align 4, !tbaa !33
  %28 = call noundef zeroext i1 @_ZNK10bit_vector3getEj(ptr noundef nonnull align 8 dereferenceable(16) %26, i32 noundef %27)
  br i1 %28, label %31, label %29

29:                                               ; preds = %25, %17
  %30 = load i32, ptr %4, align 4, !tbaa !33
  store i32 %30, ptr %2, align 4
  store i32 1, ptr %5, align 4
  br label %32

31:                                               ; preds = %25
  store i32 0, ptr %5, align 4
  br label %32

32:                                               ; preds = %31, %29
  call void @llvm.lifetime.end.p0(i64 4, ptr %4) #3
  %33 = load i32, ptr %5, align 4
  switch i32 %33, label %37 [
    i32 0, label %34
    i32 1, label %35
  ]

34:                                               ; preds = %32
  br label %7, !llvm.loop !35

35:                                               ; preds = %32
  %36 = load i32, ptr %2, align 4
  ret i32 %36

37:                                               ; preds = %32
  unreachable
}