; Function Attrs: mustprogress nofree norecurse nosync nounwind memory(read, argmem: readwrite, inaccessiblemem: none) uwtable
define hidden noundef i32 @_ZN17substitution_tree8next_regEv(ptr noundef nonnull align 8 captures(none) dereferenceable(136) %0) local_unnamed_addr #3 align 2 {
  %2 = getelementptr inbounds nuw i8, ptr %0, i64 64
  %3 = getelementptr inbounds nuw i8, ptr %0, i64 48
  %4 = getelementptr inbounds nuw i8, ptr %0, i64 16
  %5 = getelementptr inbounds nuw i8, ptr %0, i64 56
  %6 = load i32, ptr %5, align 8, !tbaa !3
  %.promoted = load i32, ptr %3, align 8, !tbaa !10
  %.promoted16 = load i32, ptr %4, align 8, !tbaa !32
  %7 = load ptr, ptr %2, align 8
  %umax = tail call i32 @llvm.umax.i32(i32 %.promoted, i32 %6)
  br label %8

8:                                                ; preds = %16, %1
  %9 = phi i32 [ %14, %16 ], [ %.promoted16, %1 ]
  %10 = phi i32 [ %15, %16 ], [ %.promoted, %1 ]
  %11 = icmp ugt i32 %10, %9
  br i1 %11, label %12, label %13

12:                                               ; preds = %8
  store i32 %10, ptr %4, align 8, !tbaa !32
  br label %13

13:                                               ; preds = %12, %8
  %14 = phi i32 [ %10, %12 ], [ %9, %8 ]
  %15 = add i32 %10, 1
  store i32 %15, ptr %3, align 8, !tbaa !10
  %exitcond.not = icmp eq i32 %10, %umax
  br i1 %exitcond.not, label %24, label %16

16:                                               ; preds = %13
  %17 = lshr i32 %10, 5
  %18 = zext nneg i32 %17 to i64
  %19 = getelementptr inbounds nuw i32, ptr %7, i64 %18
  %20 = load i32, ptr %19, align 4, !tbaa !33
  %21 = and i32 %10, 31
  %22 = shl nuw i32 1, %21
  %23 = and i32 %20, %22
  %.not15 = icmp eq i32 %23, 0
  br i1 %.not15, label %24, label %8

24:                                               ; preds = %13, %16
  %.lcssa = phi i32 [ %umax, %13 ], [ %10, %16 ]
  ret i32 %.lcssa
}